; Function Attrs: mustprogress nofree norecurse nosync nounwind memory(argmem: readwrite) uwtable
define hidden void @_ZN2cv8ximgproc10intrinsics11add_sqr_difEPfS2_S2_i(ptr noundef captures(none) %0, ptr noundef readonly captures(none) %1, ptr noundef readonly captures(none) %2, i32 noundef %3) local_unnamed_addr #6 {
  %5 = icmp sgt i32 %3, 0
  br i1 %5, label %.lr.ph.preheader, label %._crit_edge

.lr.ph.preheader:                                 ; preds = %4
  %wide.trip.count = zext nneg i32 %3 to i64
  br label %.lr.ph

.lr.ph:                                           ; preds = %.lr.ph.preheader, %.lr.ph
  %indvars.iv = phi i64 [ 0, %.lr.ph.preheader ], [ %indvars.iv.next, %.lr.ph ]
  %6 = getelementptr inbounds nuw float, ptr %1, i64 %indvars.iv
  %7 = load float, ptr %6, align 4, !tbaa !51
  %8 = getelementptr inbounds nuw float, ptr %2, i64 %indvars.iv
  %9 = load float, ptr %8, align 4, !tbaa !51
  %10 = fsub float %7, %9
  %11 = getelementptr inbounds nuw float, ptr %0, i64 %indvars.iv
  %12 = load float, ptr %11, align 4, !tbaa !51
  %13 = tail call float @llvm.fmuladd.f32(float %10, float %10, float %12)
  store float %13, ptr %11, align 4, !tbaa !51
  %indvars.iv.next = add nuw nsw i64 %indvars.iv, 1
  %exitcond.not = icmp eq i64 %indvars.iv.next, %wide.trip.count
  br i1 %exitcond.not, label %._crit_edge, label %.lr.ph, !llvm.loop !61

._crit_edge:                                      ; preds = %.lr.ph, %4
  ret void
}